target datalayout = "e-m:e-p270:32:32-p271:32:32-p272:64:64-i64:64-i128:128-f80:128-n8:16:32:64-S128"
target triple = "x86_64-pc-linux-gnu"

%struct.pointf_s = type { double, double }
%struct.segitem_s = type { %struct.pointf_s, ptr }

@stderr = external global ptr, align 8
@.str.41 = private unnamed_addr constant [49 x i8] c"out of memory when trying to allocate %zu bytes\0A\00", align 1
@.str.43 = private unnamed_addr constant [58 x i8] c"integer overflow when trying to allocate %zu * %zu bytes\0A\00", align 1

; Function Attrs: inlinehint nounwind uwtable
define internal ptr @gv_calloc(i64 noundef %0, i64 noundef %1) #3 {
  %3 = alloca i64, align 8
  %4 = alloca i64, align 8
  %5 = alloca ptr, align 8
  store i64 %0, ptr %3, align 8, !tbaa !49
  store i64 %1, ptr %4, align 8, !tbaa !49
  %6 = load i64, ptr %3, align 8, !tbaa !49
  %7 = icmp ugt i64 %6, 0
  br i1 %7, label %8, label %18

8:                                                ; preds = %2
  %9 = load i64, ptr %3, align 8, !tbaa !49
  %10 = udiv i64 -1, %9
  %11 = load i64, ptr %4, align 8, !tbaa !49
  %12 = icmp ult i64 %10, %11
  br i1 %12, label %13, label %18

13:                                               ; preds = %8
  %14 = load ptr, ptr @stderr, align 8, !tbaa !68
  %15 = load i64, ptr %3, align 8, !tbaa !49
  %16 = load i64, ptr %4, align 8, !tbaa !49
  %17 = call i32 (ptr, ptr, ...) @fprintf(ptr noundef %14, ptr noundef @.str.43, i64 noundef %15, i64 noundef %16) #15
  call void @graphviz_exit(i32 noundef 1) #17
  unreachable

18:                                               ; preds = %8, %2
  call void @llvm.lifetime.start.p0(i64 8, ptr %5) #15
  %19 = load i64, ptr %3, align 8, !tbaa !49
  %20 = load i64, ptr %4, align 8, !tbaa !49
  %21 = call noalias ptr @calloc(i64 noundef %19, i64 noundef %20) #18
  store ptr %21, ptr %5, align 8, !tbaa !8
  %22 = load i64, ptr %3, align 8, !tbaa !49
  %23 = icmp ugt i64 %22, 0
  br i1 %23, label %24, label %36

24:                                               ; preds = %18
  %25 = load i64, ptr %4, align 8, !tbaa !49
  %26 = icmp ugt i64 %25, 0
  br i1 %26, label %27, label %36

27:                                               ; preds = %24
  %28 = load ptr, ptr %5, align 8, !tbaa !8
  %29 = icmp eq ptr %28, null
  br i1 %29, label %30, label %36

30:                                               ; preds = %27
  %31 = load ptr, ptr @stderr, align 8, !tbaa !68
  %32 = load i64, ptr %3, align 8, !tbaa !49
  %33 = load i64, ptr %4, align 8, !tbaa !49
  %34 = mul i64 %32, %33
  %35 = call i32 (ptr, ptr, ...) @fprintf(ptr noundef %31, ptr noundef @.str.41, i64 noundef %34) #15
  call void @graphviz_exit(i32 noundef 1) #17
  unreachable

36:                                               ; preds = %27, %24, %18
  %37 = load ptr, ptr %5, align 8, !tbaa !8
  call void @llvm.lifetime.end.p0(i64 8, ptr %5) #15
  ret ptr %37
}

; Function Attrs: inlinehint nounwind uwtable
define internal ptr @gv_alloc(i64 noundef %0) #3 {
  %2 = alloca i64, align 8
  store i64 %0, ptr %2, align 8, !tbaa !49
  %3 = load i64, ptr %2, align 8, !tbaa !49
  %4 = call ptr @gv_calloc(i64 noundef 1, i64 noundef %3)
  ret ptr %4
}

; Function Attrs: nounwind uwtable
define internal ptr @appendSeg(double %0, double %1, ptr noundef %2) #0 {
  %4 = alloca %struct.pointf_s, align 8
  %5 = alloca ptr, align 8
  %6 = alloca ptr, align 8
  %7 = getelementptr inbounds nuw { double, double }, ptr %4, i32 0, i32 0
  store double %0, ptr %7, align 8
  %8 = getelementptr inbounds nuw { double, double }, ptr %4, i32 0, i32 1
  store double %1, ptr %8, align 8
  store ptr %2, ptr %5, align 8, !tbaa !484
  call void @llvm.lifetime.start.p0(i64 8, ptr %6) #15
  %9 = call ptr @gv_alloc(i64 noundef 24)
  store ptr %9, ptr %6, align 8, !tbaa !484
  %10 = load ptr, ptr %6, align 8, !tbaa !484
  %11 = getelementptr inbounds nuw %struct.segitem_s, ptr %10, i32 0, i32 1
  store ptr null, ptr %11, align 8, !tbaa !486
  %12 = load ptr, ptr %6, align 8, !tbaa !484
  %13 = getelementptr inbounds nuw %struct.segitem_s, ptr %12, i32 0, i32 0
  call void @llvm.memcpy.p0.p0.i64(ptr align 8 %13, ptr align 8 %4, i64 16, i1 false), !tbaa.struct !134
  %14 = load ptr, ptr %6, align 8, !tbaa !484
  %15 = load ptr, ptr %5, align 8, !tbaa !484
  %16 = getelementptr inbounds nuw %struct.segitem_s, ptr %15, i32 0, i32 1
  store ptr %14, ptr %16, align 8, !tbaa !486
  %17 = load ptr, ptr %6, align 8, !tbaa !484
  call void @llvm.lifetime.end.p0(i64 8, ptr %6) #15
  ret ptr %17
}

; Function Attrs: nounwind uwtable
define internal zeroext i1 @check_control_points(ptr noundef %0) #0 {
  %2 = alloca ptr, align 8
  %3 = alloca double, align 8
  %4 = alloca double, align 8
  store ptr %0, ptr %2, align 8, !tbaa !105
  call void @llvm.lifetime.start.p0(i64 8, ptr %3) #15
  %5 = load ptr, ptr %2, align 8, !tbaa !105
  %6 = getelementptr inbounds %struct.pointf_s, ptr %5, i64 0
  %7 = load ptr, ptr %2, align 8, !tbaa !105
  %8 = getelementptr inbounds %struct.pointf_s, ptr %7, i64 3
  %9 = load ptr, ptr %2, align 8, !tbaa !105
  %10 = getelementptr inbounds %struct.pointf_s, ptr %9, i64 1
  %11 = getelementptr inbounds nuw { double, double }, ptr %6, i32 0, i32 0
  %12 = load double, ptr %11, align 8
  %13 = getelementptr inbounds nuw { double, double }, ptr %6, i32 0, i32 1
  %14 = load double, ptr %13, align 8
  %15 = getelementptr inbounds nuw { double, double }, ptr %8, i32 0, i32 0
  %16 = load double, ptr %15, align 8
  %17 = getelementptr inbounds nuw { double, double }, ptr %8, i32 0, i32 1
  %18 = load double, ptr %17, align 8
  %19 = getelementptr inbounds nuw { double, double }, ptr %10, i32 0, i32 0
  %20 = load double, ptr %19, align 8
  %21 = getelementptr inbounds nuw { double, double }, ptr %10, i32 0, i32 1
  %22 = load double, ptr %21, align 8
  %23 = call double @ptToLine2(double %12, double %14, double %16, double %18, double %20, double %22)
  store double %23, ptr %3, align 8, !tbaa !106
  call void @llvm.lifetime.start.p0(i64 8, ptr %4) #15
  %24 = load ptr, ptr %2, align 8, !tbaa !105
  %25 = getelementptr inbounds %struct.pointf_s, ptr %24, i64 0
  %26 = load ptr, ptr %2, align 8, !tbaa !105
  %27 = getelementptr inbounds %struct.pointf_s, ptr %26, i64 3
  %28 = load ptr, ptr %2, align 8, !tbaa !105
  %29 = getelementptr inbounds %struct.pointf_s, ptr %28, i64 2
  %30 = getelementptr inbounds nuw { double, double }, ptr %25, i32 0, i32 0
  %31 = load double, ptr %30, align 8
  %32 = getelementptr inbounds nuw { double, double }, ptr %25, i32 0, i32 1
  %33 = load double, ptr %32, align 8
  %34 = getelementptr inbounds nuw { double, double }, ptr %27, i32 0, i32 0
  %35 = load double, ptr %34, align 8
  %36 = getelementptr inbounds nuw { double, double }, ptr %27, i32 0, i32 1
  %37 = load double, ptr %36, align 8
  %38 = getelementptr inbounds nuw { double, double }, ptr %29, i32 0, i32 0
  %39 = load double, ptr %38, align 8
  %40 = getelementptr inbounds nuw { double, double }, ptr %29, i32 0, i32 1
  %41 = load double, ptr %40, align 8
  %42 = call double @ptToLine2(double %31, double %33, double %35, double %37, double %39, double %41)
  store double %42, ptr %4, align 8, !tbaa !106
  %43 = load double, ptr %3, align 8, !tbaa !106
  %44 = fcmp olt double %43, 4.000000e+00
  br i1 %44, label %45, label %48

45:                                               ; preds = %1
  %46 = load double, ptr %4, align 8, !tbaa !106
  %47 = fcmp olt double %46, 4.000000e+00
  br label %48

48:                                               ; preds = %45, %1
  %49 = phi i1 [ false, %1 ], [ %47, %45 ]
  call void @llvm.lifetime.end.p0(i64 8, ptr %4) #15
  call void @llvm.lifetime.end.p0(i64 8, ptr %3) #15
  ret i1 %49
}

; Function Attrs: nounwind uwtable
define internal ptr @approx_bezier(ptr noundef %0, ptr noundef %1) #0 {
  %3 = alloca ptr, align 8
  %4 = alloca ptr, align 8
  %5 = alloca [4 x %struct.pointf_s], align 16
  %6 = alloca [4 x %struct.pointf_s], align 16
  %7 = alloca %struct.pointf_s, align 8
  store ptr %0, ptr %3, align 8, !tbaa !105
  store ptr %1, ptr %4, align 8, !tbaa !484
  call void @llvm.lifetime.start.p0(i64 64, ptr %5) #15
  call void @llvm.lifetime.start.p0(i64 64, ptr %6) #15
  %8 = load ptr, ptr %3, align 8, !tbaa !105
  %9 = call zeroext i1 @check_control_points(ptr noundef %8)
  br i1 %9, label %10, label %31

10:                                               ; preds = %2
  %11 = load ptr, ptr %4, align 8, !tbaa !484
  %12 = getelementptr inbounds nuw %struct.segitem_s, ptr %11, i32 0, i32 1
  %13 = load ptr, ptr %12, align 8, !tbaa !486
  %14 = icmp eq ptr %13, inttoptr (i64 1 to ptr)
  br i1 %14, label %15, label %22

15:                                               ; preds = %10
  %16 = load ptr, ptr %4, align 8, !tbaa !484
  %17 = getelementptr inbounds nuw %struct.segitem_s, ptr %16, i32 0, i32 1
  store ptr null, ptr %17, align 8, !tbaa !486
  %18 = load ptr, ptr %4, align 8, !tbaa !484
  %19 = getelementptr inbounds nuw %struct.segitem_s, ptr %18, i32 0, i32 0
  %20 = load ptr, ptr %3, align 8, !tbaa !105
  %21 = getelementptr inbounds %struct.pointf_s, ptr %20, i64 0
  call void @llvm.memcpy.p0.p0.i64(ptr align 8 %19, ptr align 8 %21, i64 16, i1 false), !tbaa.struct !134
  br label %22

22:                                               ; preds = %15, %10
  %23 = load ptr, ptr %3, align 8, !tbaa !105
  %24 = getelementptr inbounds %struct.pointf_s, ptr %23, i64 3
  %25 = load ptr, ptr %4, align 8, !tbaa !484
  %26 = getelementptr inbounds nuw { double, double }, ptr %24, i32 0, i32 0
  %27 = load double, ptr %26, align 8
  %28 = getelementptr inbounds nuw { double, double }, ptr %24, i32 0, i32 1
  %29 = load double, ptr %28, align 8
  %30 = call ptr @appendSeg(double %27, double %29, ptr noundef %25)
  store ptr %30, ptr %4, align 8, !tbaa !484
  br label %46

31:                                               ; preds = %2
  %32 = load ptr, ptr %3, align 8, !tbaa !105
  %33 = getelementptr inbounds [4 x %struct.pointf_s], ptr %5, i64 0, i64 0
  %34 = getelementptr inbounds [4 x %struct.pointf_s], ptr %6, i64 0, i64 0
  %35 = call { double, double } @Bezier(ptr noundef %32, double noundef 5.000000e-01, ptr noundef %33, ptr noundef %34)
  %36 = getelementptr inbounds nuw { double, double }, ptr %7, i32 0, i32 0
  %37 = extractvalue { double, double } %35, 0
  store double %37, ptr %36, align 8
  %38 = getelementptr inbounds nuw { double, double }, ptr %7, i32 0, i32 1
  %39 = extractvalue { double, double } %35, 1
  store double %39, ptr %38, align 8
  %40 = getelementptr inbounds [4 x %struct.pointf_s], ptr %5, i64 0, i64 0
  %41 = load ptr, ptr %4, align 8, !tbaa !484
  %42 = call ptr @approx_bezier(ptr noundef %40, ptr noundef %41)
  store ptr %42, ptr %4, align 8, !tbaa !484
  %43 = getelementptr inbounds [4 x %struct.pointf_s], ptr %6, i64 0, i64 0
  %44 = load ptr, ptr %4, align 8, !tbaa !484
  %45 = call ptr @approx_bezier(ptr noundef %43, ptr noundef %44)
  store ptr %45, ptr %4, align 8, !tbaa !484
  br label %46

46:                                               ; preds = %31, %22
  %47 = load ptr, ptr %4, align 8, !tbaa !484
  call void @llvm.lifetime.end.p0(i64 64, ptr %6) #15
  call void @llvm.lifetime.end.p0(i64 64, ptr %5) #15
  ret ptr %47
}