; Function Attrs: nounwind uwtable
define internal fastcc ptr @approx_bezier(ptr noundef nonnull %0, ptr noundef captures(none) %1) unnamed_addr #0 {
  %3 = alloca [4 x %struct.pointf_s], align 16
  %4 = alloca [4 x %struct.pointf_s], align 16
  call void @llvm.lifetime.start.p0(i64 64, ptr nonnull %3) #27
  call void @llvm.lifetime.start.p0(i64 64, ptr nonnull %4) #27
  %5 = getelementptr inbounds nuw i8, ptr %0, i64 48
  %6 = getelementptr inbounds nuw i8, ptr %0, i64 16
  %7 = load double, ptr %0, align 8
  %8 = getelementptr inbounds nuw i8, ptr %0, i64 8
  %9 = load double, ptr %8, align 8
  %10 = load double, ptr %5, align 8
  %11 = getelementptr inbounds nuw i8, ptr %0, i64 56
  %12 = load double, ptr %11, align 8
  %13 = load double, ptr %6, align 8
  %14 = getelementptr inbounds nuw i8, ptr %0, i64 24
  %15 = load double, ptr %14, align 8
  %16 = tail call double @ptToLine2(double %7, double %9, double %10, double %12, double %13, double %15) #27
  %17 = getelementptr inbounds nuw i8, ptr %0, i64 32
  %18 = load double, ptr %0, align 8
  %19 = load double, ptr %8, align 8
  %20 = load double, ptr %5, align 8
  %21 = load double, ptr %11, align 8
  %22 = load double, ptr %17, align 8
  %23 = getelementptr inbounds nuw i8, ptr %0, i64 40
  %24 = load double, ptr %23, align 8
  %25 = tail call double @ptToLine2(double %18, double %19, double %20, double %21, double %22, double %24) #27
  %26 = fcmp olt double %16, 4.000000e+00
  %27 = fcmp olt double %25, 4.000000e+00
  %28 = select i1 %26, i1 %27, i1 false
  br i1 %28, label %29, label %42

29:                                               ; preds = %2
  %30 = getelementptr inbounds nuw i8, ptr %1, i64 16
  %31 = load ptr, ptr %30, align 8, !tbaa !360
  %32 = icmp eq ptr %31, inttoptr (i64 1 to ptr)
  br i1 %32, label %33, label %34

33:                                               ; preds = %29
  store ptr null, ptr %30, align 8, !tbaa !360
  tail call void @llvm.memcpy.p0.p0.i64(ptr noundef nonnull align 8 dereferenceable(16) %1, ptr noundef nonnull align 8 dereferenceable(16) %0, i64 16, i1 false), !tbaa.struct !126
  br label %34

34:                                               ; preds = %33, %29
  %35 = load double, ptr %5, align 8
  %36 = load double, ptr %11, align 8
  %37 = tail call noalias dereferenceable_or_null(24) ptr @calloc(i64 noundef 1, i64 noundef 24) #28
  %38 = icmp eq ptr %37, null
  br i1 %38, label %39, label %appendSeg.exit

39:                                               ; preds = %34
  %40 = load ptr, ptr @stderr, align 8, !tbaa !6
  %41 = tail call i32 (ptr, ptr, ...) @fprintf(ptr noundef %40, ptr noundef nonnull @.str.41, i64 noundef 24) #29
  tail call fastcc void @graphviz_exit() #30
  unreachable

appendSeg.exit:                                   ; preds = %34
  store double %35, ptr %37, align 8, !tbaa !108
  %.sroa.2.0..sroa_idx.i = getelementptr inbounds nuw i8, ptr %37, i64 8
  store double %36, ptr %.sroa.2.0..sroa_idx.i, align 8, !tbaa !108
  store ptr %37, ptr %30, align 8, !tbaa !360
  br label %46

42:                                               ; preds = %2
  %43 = call { double, double } @Bezier(ptr noundef nonnull %0, double noundef 5.000000e-01, ptr noundef nonnull %3, ptr noundef nonnull %4) #27
  %44 = call fastcc ptr @approx_bezier(ptr noundef %3, ptr noundef %1)
  %45 = call fastcc ptr @approx_bezier(ptr noundef %4, ptr noundef %44)
  br label %46

46:                                               ; preds = %42, %appendSeg.exit
  %.0 = phi ptr [ %37, %appendSeg.exit ], [ %45, %42 ]
  call void @llvm.lifetime.end.p0(i64 64, ptr nonnull %4) #27
  call void @llvm.lifetime.end.p0(i64 64, ptr nonnull %3) #27
  ret ptr %.0
}